; Function Attrs: nounwind uwtable
define dso_local range(i32 -1, 1) i32 @getGenericCommand(ptr noundef %0) local_unnamed_addr #0 {
  %2 = getelementptr inbounds nuw i8, ptr %0, i64 96
  %3 = load ptr, ptr %2, align 8, !tbaa !9
  %4 = getelementptr inbounds nuw i8, ptr %3, i64 8
  %5 = load ptr, ptr %4, align 8, !tbaa !29
  %6 = getelementptr inbounds nuw i8, ptr %0, i64 28
  %7 = load i32, ptr %6, align 4, !tbaa !30
  %8 = sext i32 %7 to i64
  %9 = getelementptr inbounds [4 x ptr], ptr getelementptr inbounds nuw (i8, ptr @shared, i64 64), i64 0, i64 %8
  %10 = load ptr, ptr %9, align 8, !tbaa !29
  %11 = tail call ptr @lookupKeyReadOrReply(ptr noundef %0, ptr noundef %5, ptr noundef %10) #11
  %12 = icmp eq ptr %11, null
  br i1 %12, label %16, label %13

13:                                               ; preds = %1
  %14 = tail call i32 @checkType(ptr noundef nonnull %0, ptr noundef nonnull %11, i32 noundef 0) #11
  %.not = icmp eq i32 %14, 0
  br i1 %.not, label %15, label %16

15:                                               ; preds = %13
  tail call void @addReplyBulk(ptr noundef nonnull %0, ptr noundef nonnull %11) #11
  br label %16

16:                                               ; preds = %13, %1, %15
  %.0 = phi i32 [ 0, %15 ], [ 0, %1 ], [ -1, %13 ]
  ret i32 %.0
}